target datalayout = "e-m:e-p270:32:32-p271:32:32-p272:64:64-i64:64-i128:128-f80:128-n8:16:32:64-S128"
target triple = "x86_64-pc-linux-gnu"

%struct.AVCodecContext = type { ptr, i32, i32, ptr, i32, i32, ptr, ptr, ptr, i64, i32, i32, ptr, i32, %struct.AVRational, %struct.AVRational, %struct.AVRational, i32, i32, i32, i32, i32, %struct.AVRational, i32, i32, i32, i32, i32, i32, i32, i32, i32, i32, i32, ptr, ptr, i32, float, float, float, float, float, float, float, float, float, i32, i32, i32, i32, i32, i32, i32, i32, i32, i32, i32, i32, ptr, ptr, ptr, i32, i32, i32, i32, i32, i32, i32, i32, i32, i32, %struct.AVChannelLayout, i32, i32, i32, i32, i32, i32, i32, i32, ptr, i32, i32, i32, float, float, i32, i32, i32, i32, i32, ptr, i64, i64, float, float, i32, i32, ptr, ptr, i32, i32, i32, i32, i32, ptr, ptr, ptr, ptr, i32, i32, [8 x i64], i32, i32, i32, i32, i32, i32, i32, ptr, ptr, i32, i32, i32, i32, i32, i32, i32, i32, i32, i32, ptr, ptr, i32, i32, ptr, ptr, ptr, ptr, i32, i32, i64, i32, i32, i64, ptr, i64, ptr, i32, ptr, i32 }
%struct.AVRational = type { i32, i32 }
%struct.AVChannelLayout = type { i32, i32, %union.anon.0, ptr }
%union.anon.0 = type { i64 }
%struct.FlashSVContext = type { ptr, ptr, ptr, i32, i32, i32, i64, [196608 x i8], i32 }

@.str.2 = private unnamed_addr constant [59 x i8] c"Input dimensions too large, input must be max 4095x4095 !\0A\00", align 1

; Function Attrs: alwaysinline nounwind willreturn memory(none) uwtable
define internal i32 @av_clip_c(i32 noundef %0, i32 noundef %1, i32 noundef %2) #4 {
  %4 = alloca i32, align 4
  %5 = alloca i32, align 4
  %6 = alloca i32, align 4
  %7 = alloca i32, align 4
  store i32 %0, ptr %5, align 4, !tbaa !38
  store i32 %1, ptr %6, align 4, !tbaa !38
  store i32 %2, ptr %7, align 4, !tbaa !38
  %8 = load i32, ptr %5, align 4, !tbaa !38
  %9 = load i32, ptr %6, align 4, !tbaa !38
  %10 = icmp slt i32 %8, %9
  br i1 %10, label %11, label %13

11:                                               ; preds = %3
  %12 = load i32, ptr %6, align 4, !tbaa !38
  store i32 %12, ptr %4, align 4
  br label %21

13:                                               ; preds = %3
  %14 = load i32, ptr %5, align 4, !tbaa !38
  %15 = load i32, ptr %7, align 4, !tbaa !38
  %16 = icmp sgt i32 %14, %15
  br i1 %16, label %17, label %19

17:                                               ; preds = %13
  %18 = load i32, ptr %7, align 4, !tbaa !38
  store i32 %18, ptr %4, align 4
  br label %21

19:                                               ; preds = %13
  %20 = load i32, ptr %5, align 4, !tbaa !38
  store i32 %20, ptr %4, align 4
  br label %21

21:                                               ; preds = %19, %17, %11
  %22 = load i32, ptr %4, align 4
  ret i32 %22
}

; Function Attrs: cold nounwind optsize uwtable
define internal i32 @flashsv_encode_init(ptr noundef %0) #0 {
  %2 = alloca i32, align 4
  %3 = alloca ptr, align 8
  %4 = alloca ptr, align 8
  %5 = alloca i32, align 4
  %6 = alloca i32, align 4
  %7 = alloca i32, align 4
  %8 = alloca i32, align 4
  store ptr %0, ptr %3, align 8, !tbaa !4
  call void @llvm.lifetime.start.p0(i64 8, ptr %4) #8
  %9 = load ptr, ptr %3, align 8, !tbaa !4
  %10 = getelementptr inbounds nuw %struct.AVCodecContext, ptr %9, i32 0, i32 6
  %11 = load ptr, ptr %10, align 8, !tbaa !9
  store ptr %11, ptr %4, align 8, !tbaa !29
  call void @llvm.lifetime.start.p0(i64 4, ptr %5) #8
  call void @llvm.lifetime.start.p0(i64 4, ptr %6) #8
  call void @llvm.lifetime.start.p0(i64 4, ptr %7) #8
  %12 = load ptr, ptr %3, align 8, !tbaa !4
  %13 = load ptr, ptr %4, align 8, !tbaa !29
  %14 = getelementptr inbounds nuw %struct.FlashSVContext, ptr %13, i32 0, i32 0
  store ptr %12, ptr %14, align 8, !tbaa !31
  %15 = load ptr, ptr %3, align 8, !tbaa !4
  %16 = getelementptr inbounds nuw %struct.AVCodecContext, ptr %15, i32 0, i32 18
  %17 = load i32, ptr %16, align 8, !tbaa !33
  %18 = icmp sgt i32 %17, 4095
  br i1 %18, label %24, label %19

19:                                               ; preds = %1
  %20 = load ptr, ptr %3, align 8, !tbaa !4
  %21 = getelementptr inbounds nuw %struct.AVCodecContext, ptr %20, i32 0, i32 19
  %22 = load i32, ptr %21, align 4, !tbaa !34
  %23 = icmp sgt i32 %22, 4095
  br i1 %23, label %24, label %26

24:                                               ; preds = %19, %1
  %25 = load ptr, ptr %3, align 8, !tbaa !4
  call void (ptr, i32, ptr, ...) @av_log(ptr noundef %25, i32 noundef 16, ptr noundef @.str.2)
  store i32 -1094995529, ptr %2, align 4
  store i32 1, ptr %8, align 4
  br label %73

26:                                               ; preds = %19
  %27 = load ptr, ptr %4, align 8, !tbaa !29
  %28 = getelementptr inbounds nuw %struct.FlashSVContext, ptr %27, i32 0, i32 6
  store i64 0, ptr %28, align 8, !tbaa !35
  %29 = load ptr, ptr %3, align 8, !tbaa !4
  %30 = getelementptr inbounds nuw %struct.AVCodecContext, ptr %29, i32 0, i32 18
  %31 = load i32, ptr %30, align 8, !tbaa !33
  %32 = load ptr, ptr %4, align 8, !tbaa !29
  %33 = getelementptr inbounds nuw %struct.FlashSVContext, ptr %32, i32 0, i32 3
  store i32 %31, ptr %33, align 8, !tbaa !36
  %34 = load ptr, ptr %3, align 8, !tbaa !4
  %35 = getelementptr inbounds nuw %struct.AVCodecContext, ptr %34, i32 0, i32 19
  %36 = load i32, ptr %35, align 4, !tbaa !34
  %37 = load ptr, ptr %4, align 8, !tbaa !29
  %38 = getelementptr inbounds nuw %struct.FlashSVContext, ptr %37, i32 0, i32 4
  store i32 %36, ptr %38, align 4, !tbaa !37
  %39 = load ptr, ptr %4, align 8, !tbaa !29
  %40 = getelementptr inbounds nuw %struct.FlashSVContext, ptr %39, i32 0, i32 3
  %41 = load i32, ptr %40, align 8, !tbaa !36
  %42 = add i32 %41, 64
  %43 = sub i32 %42, 1
  %44 = udiv i32 %43, 64
  store i32 %44, ptr %5, align 4, !tbaa !38
  %45 = load ptr, ptr %4, align 8, !tbaa !29
  %46 = getelementptr inbounds nuw %struct.FlashSVContext, ptr %45, i32 0, i32 4
  %47 = load i32, ptr %46, align 4, !tbaa !37
  %48 = add i32 %47, 64
  %49 = sub i32 %48, 1
  %50 = udiv i32 %49, 64
  store i32 %50, ptr %6, align 4, !tbaa !38
  %51 = load i32, ptr %5, align 4, !tbaa !38
  %52 = load i32, ptr %6, align 4, !tbaa !38
  %53 = mul nsw i32 %51, %52
  store i32 %53, ptr %7, align 4, !tbaa !38
  %54 = load i32, ptr %7, align 4, !tbaa !38
  %55 = mul i32 %54, 12290
  %56 = add i32 4, %55
  %57 = load ptr, ptr %4, align 8, !tbaa !29
  %58 = getelementptr inbounds nuw %struct.FlashSVContext, ptr %57, i32 0, i32 5
  store i32 %56, ptr %58, align 8, !tbaa !39
  %59 = load ptr, ptr %3, align 8, !tbaa !4
  %60 = getelementptr inbounds nuw %struct.AVCodecContext, ptr %59, i32 0, i32 83
  %61 = load i32, ptr %60, align 8, !tbaa !40
  %62 = icmp eq i32 %61, -1
  br i1 %62, label %63, label %64

63:                                               ; preds = %26
  br label %69

64:                                               ; preds = %26
  %65 = load ptr, ptr %3, align 8, !tbaa !4
  %66 = getelementptr inbounds nuw %struct.AVCodecContext, ptr %65, i32 0, i32 83
  %67 = load i32, ptr %66, align 8, !tbaa !40
  %68 = call i32 @av_clip_c(i32 noundef %67, i32 noundef 0, i32 noundef 9) #9
  br label %69

69:                                               ; preds = %64, %63
  %70 = phi i32 [ -1, %63 ], [ %68, %64 ]
  %71 = load ptr, ptr %4, align 8, !tbaa !29
  %72 = getelementptr inbounds nuw %struct.FlashSVContext, ptr %71, i32 0, i32 8
  store i32 %70, ptr %72, align 8, !tbaa !41
  store i32 0, ptr %2, align 4
  store i32 1, ptr %8, align 4
  br label %73

73:                                               ; preds = %69, %24
  call void @llvm.lifetime.end.p0(i64 4, ptr %7) #8
  call void @llvm.lifetime.end.p0(i64 4, ptr %6) #8
  call void @llvm.lifetime.end.p0(i64 4, ptr %5) #8
  call void @llvm.lifetime.end.p0(i64 8, ptr %4) #8
  %74 = load i32, ptr %2, align 4
  ret i32 %74
}