; Function Attrs: cold nounwind optsize uwtable
define internal range(i32 -1094995529, 1) i32 @flashsv_encode_init(ptr noundef %0) #0 {
  %2 = getelementptr inbounds nuw i8, ptr %0, i64 32
  %3 = load ptr, ptr %2, align 8, !tbaa !4
  store ptr %0, ptr %3, align 8, !tbaa !27
  %4 = getelementptr inbounds nuw i8, ptr %0, i64 112
  %5 = load i32, ptr %4, align 8, !tbaa !30
  %6 = icmp sgt i32 %5, 4095
  br i1 %6, label %11, label %7

7:                                                ; preds = %1
  %8 = getelementptr inbounds nuw i8, ptr %0, i64 116
  %9 = load i32, ptr %8, align 4, !tbaa !31
  %10 = icmp sgt i32 %9, 4095
  br i1 %10, label %11, label %12

11:                                               ; preds = %7, %1
  tail call void (ptr, i32, ptr, ...) @av_log(ptr noundef nonnull %0, i32 noundef 16, ptr noundef nonnull @.str.2) #6
  br label %31

12:                                               ; preds = %7
  %13 = getelementptr inbounds nuw i8, ptr %3, i64 40
  store i64 0, ptr %13, align 8, !tbaa !32
  %14 = getelementptr inbounds nuw i8, ptr %3, i64 24
  store i32 %5, ptr %14, align 8, !tbaa !33
  %15 = getelementptr inbounds nuw i8, ptr %3, i64 28
  store i32 %9, ptr %15, align 4, !tbaa !34
  %16 = add nsw i32 %5, 63
  %17 = lshr i32 %16, 6
  %18 = add nsw i32 %9, 63
  %19 = lshr i32 %18, 6
  %20 = mul i32 %17, 12290
  %21 = mul i32 %20, %19
  %22 = add i32 %21, 4
  %23 = getelementptr inbounds nuw i8, ptr %3, i64 32
  store i32 %22, ptr %23, align 8, !tbaa !35
  %24 = getelementptr inbounds nuw i8, ptr %0, i64 424
  %25 = load i32, ptr %24, align 8, !tbaa !36
  %26 = icmp eq i32 %25, -1
  %27 = tail call i32 @llvm.smax.i32(i32 %25, i32 0)
  %28 = tail call i32 @llvm.umin.i32(i32 %27, i32 9)
  %29 = select i1 %26, i32 -1, i32 %28
  %30 = getelementptr inbounds nuw i8, ptr %3, i64 196656
  store i32 %29, ptr %30, align 8, !tbaa !37
  br label %31

31:                                               ; preds = %12, %11
  %.0 = phi i32 [ -1094995529, %11 ], [ 0, %12 ]
  ret i32 %.0
}